target datalayout = "e-m:e-p270:32:32-p271:32:32-p272:64:64-i64:64-i128:128-f80:128-n8:16:32:64-S128"
target triple = "x86_64-pc-linux-gnu"

%struct.PyWideStringList = type { i64, ptr }
%struct.PyConfig = type { i32, i32, i32, i32, i32, i32, i64, i32, i32, i32, i32, i32, i32, i32, ptr, i32, ptr, ptr, ptr, i32, %struct.PyWideStringList, %struct.PyWideStringList, %struct.PyWideStringList, %struct.PyWideStringList, i32, i32, i32, i32, i32, i32, i32, i32, i32, i32, i32, i32, i32, ptr, ptr, ptr, i32, i32, i32, i32, i32, ptr, ptr, ptr, ptr, i32, %struct.PyWideStringList, ptr, ptr, ptr, ptr, ptr, ptr, ptr, i32, ptr, ptr, ptr, ptr, i32, i32, i32 }
%struct.PyStatus = type { i32, ptr, ptr, i32 }

@stderr = external global ptr, align 8
@.str.83 = private unnamed_addr constant [17 x i8] c"--- Pass %d ---\0A\00", align 1
@.str.86 = private unnamed_addr constant [13 x i8] c"embedded_ext\00", align 1
@.str.87 = private unnamed_addr constant [33 x i8] c"PyImport_AppendInittab() failed\0A\00", align 1
@__const.test_repeated_init_and_inittab.argv = private unnamed_addr constant [3 x ptr] [ptr @.str.68, ptr @.str.88, ptr @.str.89], align 16

; Function Attrs: nounwind uwtable
define internal void @init_from_config_clear(ptr noundef %0) #0 {
  %2 = alloca ptr, align 8
  %3 = alloca %struct.PyStatus, align 8
  store ptr %0, ptr %2, align 8, !tbaa !85
  call void @llvm.lifetime.start.p0(i64 32, ptr %3) #11
  %4 = load ptr, ptr %2, align 8, !tbaa !85
  call void @Py_InitializeFromConfig(ptr dead_on_unwind writable sret(%struct.PyStatus) align 8 %3, ptr noundef %4)
  %5 = load ptr, ptr %2, align 8, !tbaa !85
  call void @PyConfig_Clear(ptr noundef %5)
  %6 = call i32 @PyStatus_Exception(ptr noundef byval(%struct.PyStatus) align 8 %3)
  %7 = icmp ne i32 %6, 0
  br i1 %7, label %8, label %9

8:                                                ; preds = %1
  call void @Py_ExitStatusException(ptr noundef byval(%struct.PyStatus) align 8 %3) #15
  unreachable

9:                                                ; preds = %1
  call void @llvm.lifetime.end.p0(i64 32, ptr %3) #11
  ret void
}

; Function Attrs: nounwind uwtable
define internal void @config_set_argv(ptr noundef %0, i64 noundef %1, ptr noundef %2) #0 {
  %4 = alloca ptr, align 8
  %5 = alloca i64, align 8
  %6 = alloca ptr, align 8
  %7 = alloca %struct.PyStatus, align 8
  store ptr %0, ptr %4, align 8, !tbaa !85
  store i64 %1, ptr %5, align 8, !tbaa !37
  store ptr %2, ptr %6, align 8, !tbaa !78
  call void @llvm.lifetime.start.p0(i64 32, ptr %7) #11
  %8 = load ptr, ptr %4, align 8, !tbaa !85
  %9 = load i64, ptr %5, align 8, !tbaa !37
  %10 = load ptr, ptr %6, align 8, !tbaa !78
  call void @PyConfig_SetArgv(ptr dead_on_unwind writable sret(%struct.PyStatus) align 8 %7, ptr noundef %8, i64 noundef %9, ptr noundef %10)
  %11 = call i32 @PyStatus_Exception(ptr noundef byval(%struct.PyStatus) align 8 %7)
  %12 = icmp ne i32 %11, 0
  br i1 %12, label %13, label %15

13:                                               ; preds = %3
  %14 = load ptr, ptr %4, align 8, !tbaa !85
  call void @PyConfig_Clear(ptr noundef %14)
  call void @Py_ExitStatusException(ptr noundef byval(%struct.PyStatus) align 8 %7) #15
  unreachable

15:                                               ; preds = %3
  call void @llvm.lifetime.end.p0(i64 32, ptr %7) #11
  ret void
}

; Function Attrs: nounwind uwtable
define internal i32 @test_repeated_init_and_inittab() #0 {
  %1 = alloca i32, align 4
  %2 = alloca i32, align 4
  %3 = alloca i32, align 4
  %4 = alloca [3 x ptr], align 16
  %5 = alloca %struct.PyConfig, align 8
  %6 = alloca i32, align 4
  call void @llvm.lifetime.start.p0(i64 4, ptr %2) #11
  store i32 1, ptr %2, align 4, !tbaa !4
  br label %7

7:                                                ; preds = %31, %0
  %8 = load i32, ptr %2, align 4, !tbaa !4
  %9 = icmp sle i32 %8, 4
  br i1 %9, label %11, label %10

10:                                               ; preds = %7
  store i32 2, ptr %3, align 4
  br label %34

11:                                               ; preds = %7
  %12 = load i32, ptr %2, align 4, !tbaa !4
  %13 = call i32 (ptr, ...) @printf(ptr noundef @.str.83, i32 noundef %12)
  %14 = call i32 @PyImport_AppendInittab(ptr noundef @.str.86, ptr noundef @PyInit_embedded_ext)
  %15 = icmp ne i32 %14, 0
  br i1 %15, label %16, label %19

16:                                               ; preds = %11
  %17 = load ptr, ptr @stderr, align 8, !tbaa !21
  %18 = call i32 (ptr, ptr, ...) @fprintf(ptr noundef %17, ptr noundef @.str.87) #11
  store i32 1, ptr %1, align 4
  store i32 1, ptr %3, align 4
  br label %34

19:                                               ; preds = %11
  call void @llvm.lifetime.start.p0(i64 24, ptr %4) #11
  call void @llvm.memcpy.p0.p0.i64(ptr align 16 %4, ptr align 16 @__const.test_repeated_init_and_inittab.argv, i64 24, i1 false)
  call void @llvm.lifetime.start.p0(i64 448, ptr %5) #11
  call void @PyConfig_InitPythonConfig(ptr noundef %5)
  %20 = getelementptr inbounds nuw %struct.PyConfig, ptr %5, i32 0, i32 1
  store i32 1, ptr %20, align 4, !tbaa !29
  %21 = getelementptr inbounds [3 x ptr], ptr %4, i64 0, i64 0
  call void @config_set_argv(ptr noundef %5, i64 noundef 3, ptr noundef %21)
  call void @init_from_config_clear(ptr noundef %5)
  call void @llvm.lifetime.start.p0(i64 4, ptr %6) #11
  %22 = call i32 @Py_RunMain()
  store i32 %22, ptr %6, align 4, !tbaa !4
  %23 = load i32, ptr %6, align 4, !tbaa !4
  %24 = icmp ne i32 %23, 0
  br i1 %24, label %25, label %27

25:                                               ; preds = %19
  %26 = load i32, ptr %6, align 4, !tbaa !4
  store i32 %26, ptr %1, align 4
  store i32 1, ptr %3, align 4
  br label %28

27:                                               ; preds = %19
  store i32 0, ptr %3, align 4
  br label %28

28:                                               ; preds = %27, %25
  call void @llvm.lifetime.end.p0(i64 4, ptr %6) #11
  call void @llvm.lifetime.end.p0(i64 448, ptr %5) #11
  call void @llvm.lifetime.end.p0(i64 24, ptr %4) #11
  %29 = load i32, ptr %3, align 4
  switch i32 %29, label %34 [
    i32 0, label %30
  ]

30:                                               ; preds = %28
  br label %31

31:                                               ; preds = %30
  %32 = load i32, ptr %2, align 4, !tbaa !4
  %33 = add i32 %32, 1
  store i32 %33, ptr %2, align 4, !tbaa !4
  br label %7, !llvm.loop !35

34:                                               ; preds = %28, %16, %10
  call void @llvm.lifetime.end.p0(i64 4, ptr %2) #11
  %35 = load i32, ptr %3, align 4
  switch i32 %35, label %39 [
    i32 2, label %36
    i32 1, label %37
  ]

36:                                               ; preds = %34
  store i32 0, ptr %1, align 4
  br label %37

37:                                               ; preds = %36, %34
  %38 = load i32, ptr %1, align 4
  ret i32 %38

39:                                               ; preds = %34
  unreachable
}