; Function Attrs: nounwind uwtable
define internal i32 @test_repeated_init_and_inittab() #0 {
  %1 = alloca %struct.PyStatus, align 8
  %2 = alloca %struct.PyStatus, align 8
  %3 = alloca [3 x ptr], align 16
  %4 = alloca %struct.PyConfig, align 8
  %5 = getelementptr inbounds nuw i8, ptr %4, i64 4
  br label %8

6:                                                ; preds = %init_from_config_clear.exit
  %7 = add nuw nsw i32 %.01014, 1
  %exitcond = icmp eq i32 %7, 5
  br i1 %exitcond, label %.loopexit, label %8, !llvm.loop !35

8:                                                ; preds = %0, %6
  %.01014 = phi i32 [ 1, %0 ], [ %7, %6 ]
  %9 = call i32 (ptr, ...) @printf(ptr noundef nonnull dereferenceable(1) @.str.83, i32 noundef %.01014)
  %10 = call i32 @PyImport_AppendInittab(ptr noundef nonnull @.str.86, ptr noundef nonnull @PyInit_embedded_ext) #20
  %.not = icmp eq i32 %10, 0
  br i1 %.not, label %14, label %11

11:                                               ; preds = %8
  %12 = load ptr, ptr @stderr, align 8, !tbaa !16
  %13 = call i64 @fwrite(ptr nonnull @.str.87, i64 32, i64 1, ptr %12) #23
  br label %.loopexit

14:                                               ; preds = %8
  call void @llvm.lifetime.start.p0(i64 24, ptr nonnull %3) #20
  call void @llvm.memcpy.p0.p0.i64(ptr noundef nonnull align 16 dereferenceable(24) %3, ptr noundef nonnull align 16 dereferenceable(24) @__const.test_audit_run_command.argv, i64 24, i1 false)
  call void @llvm.lifetime.start.p0(i64 448, ptr nonnull %4) #20
  call void @PyConfig_InitPythonConfig(ptr noundef nonnull %4) #20
  store i32 1, ptr %5, align 4, !tbaa !36
  call void @llvm.lifetime.start.p0(i64 32, ptr nonnull %2) #20
  call void @PyConfig_SetArgv(ptr dead_on_unwind nonnull writable sret(%struct.PyStatus) align 8 %2, ptr noundef nonnull %4, i64 noundef 3, ptr noundef nonnull %3) #20
  %15 = call i32 @PyStatus_Exception(ptr noundef nonnull byval(%struct.PyStatus) align 8 %2) #20
  %.not.i = icmp eq i32 %15, 0
  br i1 %.not.i, label %config_set_argv.exit, label %16

16:                                               ; preds = %14
  call void @PyConfig_Clear(ptr noundef nonnull %4) #20
  call void @Py_ExitStatusException(ptr noundef nonnull byval(%struct.PyStatus) align 8 %2) #24
  unreachable

config_set_argv.exit:                             ; preds = %14
  call void @llvm.lifetime.end.p0(i64 32, ptr nonnull %2) #20
  call void @llvm.lifetime.start.p0(i64 32, ptr nonnull %1) #20
  call void @Py_InitializeFromConfig(ptr dead_on_unwind nonnull writable sret(%struct.PyStatus) align 8 %1, ptr noundef nonnull %4) #20
  call void @PyConfig_Clear(ptr noundef nonnull %4) #20
  %17 = call i32 @PyStatus_Exception(ptr noundef nonnull byval(%struct.PyStatus) align 8 %1) #20
  %.not.i13 = icmp eq i32 %17, 0
  br i1 %.not.i13, label %init_from_config_clear.exit, label %18

18:                                               ; preds = %config_set_argv.exit
  call void @Py_ExitStatusException(ptr noundef nonnull byval(%struct.PyStatus) align 8 %1) #24
  unreachable

init_from_config_clear.exit:                      ; preds = %config_set_argv.exit
  call void @llvm.lifetime.end.p0(i64 32, ptr nonnull %1) #20
  %19 = call i32 @Py_RunMain() #20
  %.not12 = icmp eq i32 %19, 0
  call void @llvm.lifetime.end.p0(i64 448, ptr nonnull %4) #20
  call void @llvm.lifetime.end.p0(i64 24, ptr nonnull %3) #20
  br i1 %.not12, label %6, label %.loopexit

.loopexit:                                        ; preds = %6, %init_from_config_clear.exit, %11
  %spec.select = phi i32 [ 1, %11 ], [ 0, %6 ], [ %19, %init_from_config_clear.exit ]
  ret i32 %spec.select
}